(lp1
I4
aF-0.5
aF-0.5
aF-0.5
aF0.5
aF0.5
aF0.5
aF0.5
aF-0.5
aI8
aF-0.80000000000000004
aF1
aF0.80000000000000004
aF1
aF0.80000000000000004
aF0.012500000000000001
aF0.52500000000000002
aF0.012500000000000001
aF0.52500000000000002
aF0.52500000000000002
aF-0.52500000000000002
aF0.52500000000000002
aF-0.52500000000000002
aF0.012500000000000001
aF-0.80000000000000004
aF0.012500000000000001
aI8
aF-0.80000000000000004
aF-1
aF-0.80000000000000004
aF-0.012500000000000001
aF-0.52500000000000002
aF-0.012500000000000001
aF-0.52500000000000002
aF-0.52500000000000002
aF0.52500000000000002
aF-0.52500000000000002
aF0.52500000000000002
aF-0.012500000000000001
aF0.80000000000000004
aF-0.012500000000000001
aF0.80000000000000004
aF-1
a.