(lp1
I12
aF-0.80000000000000004
aF1
aF0.80000000000000004
aF1
aF0.80000000000000004
aF0.074999999999999997
aF0.75
aF0.074999999999999997
aF0.75
aF0.57499999999999996
aF0.44999999999999996
aF0.57499999999999996
aF0.44999999999999996
aF0.84999999999999998
aF0
aF0.84999999999999998
aF0
aF0.57499999999999996
aF-0.75
aF0.57499999999999996
aF-0.75
aF0.074999999999999997
aF-0.80000000000000004
aF0.074999999999999997
aI12
aF-0.80000000000000004
aF-1
aF-0.80000000000000004
aF-0.074999999999999997
aF-0.75
aF-0.074999999999999997
aF-0.75
aF-0.57499999999999996
aF0
aF-0.57499999999999996
aF0
aF-0.84999999999999998
aF0.44999999999999996
aF-0.84999999999999998
aF0.44999999999999996
aF-0.57499999999999996
aF0.75
aF-0.57499999999999996
aF0.75
aF-0.074999999999999997
aF0.80000000000000004
aF-0.074999999999999997
aF0.80000000000000004
aF-1
aI4
aF0.14999999999999999
aF0.69999999999999996
aF0.29999999999999999
aF0.69999999999999996
aF0.29999999999999999
aF0.29999999999999999
aF0.14999999999999999
aF0.29999999999999999
aI4
aF0.14999999999999999
aF-0.29999999999999999
aF0.29999999999999999
aF-0.29999999999999999
aF0.29999999999999999
aF-0.69999999999999996
aF0.14999999999999999
aF-0.69999999999999996
aI12
aF-0.59999999999999998
aF0.42499999999999999
aF0
aF0.42499999999999999
aF0
aF0.14999999999999999
aF0.44999999999999996
aF0.14999999999999999
aF0.44999999999999996
aF0.42499999999999999
aF0.59999999999999998
aF0.42499999999999999
aF0.59999999999999998
aF-0.42499999999999999
aF0.44999999999999996
aF-0.42499999999999999
aF0.44999999999999996
aF-0.14999999999999999
aF0
aF-0.14999999999999999
aF0
aF-0.42499999999999999
aF-0.59999999999999998
aF-0.42499999999999999
a.